target datalayout = "e-m:e-p270:32:32-p271:32:32-p272:64:64-i64:64-i128:128-f80:128-n8:16:32:64-S128"
target triple = "x86_64-pc-linux-gnu"

%struct.Vec_Str_t_ = type { i32, i32, ptr }
%struct.Vec_Int_t_ = type { i32, i32, ptr }
%struct.Bac_Man_t_ = type { ptr, ptr, ptr, ptr, i32, i32, ptr, ptr, ptr, %struct.Vec_Int_t_, %struct.Vec_Int_t_, %struct.Vec_Int_t_, %struct.Vec_Int_t_, ptr, ptr, [4 x i32], [73 x ptr], [73 x ptr] }

@.str = private unnamed_addr constant [3 x i8] c"rb\00", align 1
@.str.1 = private unnamed_addr constant [36 x i8] c"Cannot open file \22%s\22 for reading.\0A\00", align 1

; Function Attrs: nounwind uwtable
define internal void @Vec_StrFree(ptr noundef %0) #0 {
  %2 = alloca ptr, align 8
  store ptr %0, ptr %2, align 8
  %3 = load ptr, ptr %2, align 8
  %4 = getelementptr inbounds %struct.Vec_Str_t_, ptr %3, i32 0, i32 2
  %5 = load ptr, ptr %4, align 8
  %6 = icmp ne ptr %5, null
  br i1 %6, label %7, label %13

7:                                                ; preds = %1
  %8 = load ptr, ptr %2, align 8
  %9 = getelementptr inbounds %struct.Vec_Str_t_, ptr %8, i32 0, i32 2
  %10 = load ptr, ptr %9, align 8
  call void @free(ptr noundef %10) #11
  %11 = load ptr, ptr %2, align 8
  %12 = getelementptr inbounds %struct.Vec_Str_t_, ptr %11, i32 0, i32 2
  store ptr null, ptr %12, align 8
  br label %14

13:                                               ; preds = %1
  br label %14

14:                                               ; preds = %13, %7
  %15 = load ptr, ptr %2, align 8
  %16 = icmp ne ptr %15, null
  br i1 %16, label %17, label %19

17:                                               ; preds = %14
  %18 = load ptr, ptr %2, align 8
  call void @free(ptr noundef %18) #11
  store ptr null, ptr %2, align 8
  br label %20

19:                                               ; preds = %14
  br label %20

20:                                               ; preds = %19, %17
  ret void
}

; Function Attrs: nounwind uwtable
define internal ptr @Abc_UtilStrsav(ptr noundef %0) #0 {
  %2 = alloca ptr, align 8
  store ptr %0, ptr %2, align 8
  %3 = load ptr, ptr %2, align 8
  %4 = icmp ne ptr %3, null
  br i1 %4, label %5, label %13

5:                                                ; preds = %1
  %6 = load ptr, ptr %2, align 8
  %7 = call i64 @strlen(ptr noundef %6) #9
  %8 = add i64 %7, 1
  %9 = mul i64 1, %8
  %10 = call noalias ptr @malloc(i64 noundef %9) #12
  %11 = load ptr, ptr %2, align 8
  %12 = call ptr @strcpy(ptr noundef %10, ptr noundef %11) #11
  br label %14

13:                                               ; preds = %1
  br label %14

14:                                               ; preds = %13, %5
  %15 = phi ptr [ %12, %5 ], [ null, %13 ]
  ret ptr %15
}

; Function Attrs: nounwind uwtable
define internal i32 @Vec_StrSize(ptr noundef %0) #0 {
  %2 = alloca ptr, align 8
  store ptr %0, ptr %2, align 8
  %3 = load ptr, ptr %2, align 8
  %4 = getelementptr inbounds %struct.Vec_Str_t_, ptr %3, i32 0, i32 1
  %5 = load i32, ptr %4, align 4
  ret i32 %5
}

; Function Attrs: nounwind uwtable
define internal ptr @Vec_StrArray(ptr noundef %0) #0 {
  %2 = alloca ptr, align 8
  store ptr %0, ptr %2, align 8
  %3 = load ptr, ptr %2, align 8
  %4 = getelementptr inbounds %struct.Vec_Str_t_, ptr %3, i32 0, i32 2
  %5 = load ptr, ptr %4, align 8
  ret ptr %5
}

; Function Attrs: nounwind uwtable
define internal ptr @Vec_StrAlloc(i32 noundef %0) #0 {
  %2 = alloca i32, align 4
  %3 = alloca ptr, align 8
  store i32 %0, ptr %2, align 4
  %4 = call noalias ptr @malloc(i64 noundef 16) #12
  store ptr %4, ptr %3, align 8
  %5 = load i32, ptr %2, align 4
  %6 = icmp sgt i32 %5, 0
  br i1 %6, label %7, label %11

7:                                                ; preds = %1
  %8 = load i32, ptr %2, align 4
  %9 = icmp slt i32 %8, 16
  br i1 %9, label %10, label %11

10:                                               ; preds = %7
  store i32 16, ptr %2, align 4
  br label %11

11:                                               ; preds = %10, %7, %1
  %12 = load ptr, ptr %3, align 8
  %13 = getelementptr inbounds %struct.Vec_Str_t_, ptr %12, i32 0, i32 1
  store i32 0, ptr %13, align 4
  %14 = load i32, ptr %2, align 4
  %15 = load ptr, ptr %3, align 8
  %16 = getelementptr inbounds %struct.Vec_Str_t_, ptr %15, i32 0, i32 0
  store i32 %14, ptr %16, align 8
  %17 = load ptr, ptr %3, align 8
  %18 = getelementptr inbounds %struct.Vec_Str_t_, ptr %17, i32 0, i32 0
  %19 = load i32, ptr %18, align 8
  %20 = icmp ne i32 %19, 0
  br i1 %20, label %21, label %28

21:                                               ; preds = %11
  %22 = load ptr, ptr %3, align 8
  %23 = getelementptr inbounds %struct.Vec_Str_t_, ptr %22, i32 0, i32 0
  %24 = load i32, ptr %23, align 8
  %25 = sext i32 %24 to i64
  %26 = mul i64 1, %25
  %27 = call noalias ptr @malloc(i64 noundef %26) #12
  br label %29

28:                                               ; preds = %11
  br label %29

29:                                               ; preds = %28, %21
  %30 = phi ptr [ %27, %21 ], [ null, %28 ]
  %31 = load ptr, ptr %3, align 8
  %32 = getelementptr inbounds %struct.Vec_Str_t_, ptr %31, i32 0, i32 2
  store ptr %30, ptr %32, align 8
  %33 = load ptr, ptr %3, align 8
  ret ptr %33
}

; Function Attrs: nounwind uwtable
define ptr @Bac_ManReadBac(ptr noundef %0) #0 {
  %2 = alloca ptr, align 8
  %3 = alloca ptr, align 8
  %4 = alloca ptr, align 8
  %5 = alloca ptr, align 8
  %6 = alloca ptr, align 8
  %7 = alloca i32, align 4
  store ptr %0, ptr %3, align 8
  %8 = load ptr, ptr %3, align 8
  %9 = call noalias ptr @fopen(ptr noundef %8, ptr noundef @.str)
  store ptr %9, ptr %5, align 8
  %10 = load ptr, ptr %5, align 8
  %11 = icmp eq ptr %10, null
  br i1 %11, label %12, label %15

12:                                               ; preds = %1
  %13 = load ptr, ptr %3, align 8
  %14 = call i32 (ptr, ...) @printf(ptr noundef @.str.1, ptr noundef %13)
  store ptr null, ptr %2, align 8
  br label %63

15:                                               ; preds = %1
  %16 = load ptr, ptr %5, align 8
  %17 = call i32 @fseek(ptr noundef %16, i64 noundef 0, i32 noundef 2)
  %18 = load ptr, ptr %5, align 8
  %19 = call i64 @ftell(ptr noundef %18)
  %20 = trunc i64 %19 to i32
  store i32 %20, ptr %7, align 4
  %21 = load ptr, ptr %5, align 8
  call void @rewind(ptr noundef %21)
  %22 = load i32, ptr %7, align 4
  %23 = call ptr @Vec_StrAlloc(i32 noundef %22)
  store ptr %23, ptr %6, align 8
  %24 = load ptr, ptr %6, align 8
  %25 = getelementptr inbounds %struct.Vec_Str_t_, ptr %24, i32 0, i32 0
  %26 = load i32, ptr %25, align 8
  %27 = load ptr, ptr %6, align 8
  %28 = getelementptr inbounds %struct.Vec_Str_t_, ptr %27, i32 0, i32 1
  store i32 %26, ptr %28, align 4
  %29 = load ptr, ptr %6, align 8
  %30 = call ptr @Vec_StrArray(ptr noundef %29)
  %31 = load ptr, ptr %6, align 8
  %32 = call i32 @Vec_StrSize(ptr noundef %31)
  %33 = sext i32 %32 to i64
  %34 = load ptr, ptr %5, align 8
  %35 = call i64 @fread(ptr noundef %30, i64 noundef 1, i64 noundef %33, ptr noundef %34)
  %36 = trunc i64 %35 to i32
  store i32 %36, ptr %7, align 4
  %37 = load ptr, ptr %5, align 8
  %38 = call i32 @fclose(ptr noundef %37)
  %39 = load ptr, ptr %6, align 8
  %40 = call ptr @Bac_ManReadBacInt(ptr noundef %39)
  store ptr %40, ptr %4, align 8
  %41 = load ptr, ptr %4, align 8
  %42 = icmp ne ptr %41, null
  br i1 %42, label %43, label %60

43:                                               ; preds = %15
  %44 = load ptr, ptr %4, align 8
  %45 = getelementptr inbounds %struct.Bac_Man_t_, ptr %44, i32 0, i32 1
  %46 = load ptr, ptr %45, align 8
  %47 = icmp ne ptr %46, null
  br i1 %47, label %48, label %54

48:                                               ; preds = %43
  %49 = load ptr, ptr %4, align 8
  %50 = getelementptr inbounds %struct.Bac_Man_t_, ptr %49, i32 0, i32 1
  %51 = load ptr, ptr %50, align 8
  call void @free(ptr noundef %51) #11
  %52 = load ptr, ptr %4, align 8
  %53 = getelementptr inbounds %struct.Bac_Man_t_, ptr %52, i32 0, i32 1
  store ptr null, ptr %53, align 8
  br label %55

54:                                               ; preds = %43
  br label %55

55:                                               ; preds = %54, %48
  %56 = load ptr, ptr %3, align 8
  %57 = call ptr @Abc_UtilStrsav(ptr noundef %56)
  %58 = load ptr, ptr %4, align 8
  %59 = getelementptr inbounds %struct.Bac_Man_t_, ptr %58, i32 0, i32 1
  store ptr %57, ptr %59, align 8
  br label %60

60:                                               ; preds = %55, %15
  %61 = load ptr, ptr %6, align 8
  call void @Vec_StrFree(ptr noundef %61)
  %62 = load ptr, ptr %4, align 8
  store ptr %62, ptr %2, align 8
  br label %63

63:                                               ; preds = %60, %12
  %64 = load ptr, ptr %2, align 8
  ret ptr %64
}