; Function Attrs: nounwind uwtable
define noundef ptr @Bac_ManReadBac(ptr noundef %0) local_unnamed_addr #5 {
  %2 = tail call noalias ptr @fopen(ptr noundef %0, ptr noundef nonnull @.str)
  %3 = icmp eq ptr %2, null
  br i1 %3, label %4, label %6

4:                                                ; preds = %1
  %5 = tail call i32 (ptr, ...) @printf(ptr noundef nonnull dereferenceable(1) @.str.1, ptr noundef %0)
  br label %34

6:                                                ; preds = %1
  %7 = tail call i32 @fseek(ptr noundef nonnull %2, i64 noundef 0, i32 noundef 2)
  %8 = tail call i64 @ftell(ptr noundef nonnull %2)
  %9 = trunc i64 %8 to i32
  tail call void @rewind(ptr noundef nonnull %2)
  %10 = tail call noalias dereferenceable_or_null(16) ptr @malloc(i64 noundef 16) #19
  %11 = add i32 %9, -1
  %or.cond.i = icmp ult i32 %11, 15
  %spec.store.select.i = select i1 %or.cond.i, i32 16, i32 %9
  %12 = getelementptr inbounds nuw i8, ptr %10, i64 4
  store i32 %spec.store.select.i, ptr %10, align 8
  %.not.i = icmp eq i32 %spec.store.select.i, 0
  br i1 %.not.i, label %Vec_StrAlloc.exit, label %13

13:                                               ; preds = %6
  %14 = sext i32 %spec.store.select.i to i64
  %15 = tail call noalias ptr @malloc(i64 noundef %14) #19
  br label %Vec_StrAlloc.exit

Vec_StrAlloc.exit:                                ; preds = %6, %13
  %.pre-phi = phi i64 [ %14, %13 ], [ 0, %6 ]
  %16 = phi ptr [ %15, %13 ], [ null, %6 ]
  %17 = getelementptr inbounds nuw i8, ptr %10, i64 8
  store ptr %16, ptr %17, align 8
  store i32 %spec.store.select.i, ptr %12, align 4
  %18 = tail call i64 @fread(ptr noundef %16, i64 noundef 1, i64 noundef %.pre-phi, ptr noundef nonnull %2)
  %19 = tail call i32 @fclose(ptr noundef nonnull %2)
  %20 = tail call ptr @Bac_ManReadBacInt(ptr noundef nonnull %10)
  %.not = icmp eq ptr %20, null
  br i1 %.not, label %32, label %21

21:                                               ; preds = %Vec_StrAlloc.exit
  %22 = getelementptr inbounds nuw i8, ptr %20, i64 8
  %23 = load ptr, ptr %22, align 8
  %.not25 = icmp eq ptr %23, null
  br i1 %.not25, label %25, label %24

24:                                               ; preds = %21
  tail call void @free(ptr noundef nonnull %23) #21
  store ptr null, ptr %22, align 8
  br label %25

25:                                               ; preds = %21, %24
  %.not.i27 = icmp eq ptr %0, null
  br i1 %.not.i27, label %Abc_UtilStrsav.exit, label %26

26:                                               ; preds = %25
  %27 = tail call i64 @strlen(ptr noundef nonnull readonly dereferenceable(1) %0) #17
  %28 = add i64 %27, 1
  %29 = tail call noalias ptr @malloc(i64 noundef %28) #19
  %30 = tail call ptr @strcpy(ptr noundef nonnull dereferenceable(1) %29, ptr noundef nonnull readonly dereferenceable(1) %0) #21
  br label %Abc_UtilStrsav.exit

Abc_UtilStrsav.exit:                              ; preds = %25, %26
  %31 = phi ptr [ %29, %26 ], [ null, %25 ]
  store ptr %31, ptr %22, align 8
  br label %32

32:                                               ; preds = %Abc_UtilStrsav.exit, %Vec_StrAlloc.exit
  %.not.i28 = icmp eq ptr %16, null
  br i1 %.not.i28, label %Vec_StrFree.exit, label %33

33:                                               ; preds = %32
  tail call void @free(ptr noundef nonnull %16) #21
  br label %Vec_StrFree.exit

Vec_StrFree.exit:                                 ; preds = %32, %33
  tail call void @free(ptr noundef nonnull %10) #21
  br label %34

34:                                               ; preds = %Vec_StrFree.exit, %4
  %.0 = phi ptr [ null, %4 ], [ %20, %Vec_StrFree.exit ]
  ret ptr %.0
}